ARM GAS  C:\Users\nikod\AppData\Local\Temp\ccSDDJek.s 			page 1


   1              		.syntax unified
   2              		.cpu cortex-m3
   3              		.fpu softvfp
   4              		.eabi_attribute 20, 1
   5              		.eabi_attribute 21, 1
   6              		.eabi_attribute 23, 3
   7              		.eabi_attribute 24, 1
   8              		.eabi_attribute 25, 1
   9              		.eabi_attribute 26, 1
  10              		.eabi_attribute 30, 1
  11              		.eabi_attribute 34, 1
  12              		.eabi_attribute 18, 4
  13              		.thumb
  14              		.syntax unified
  15              		.file	"main.c"
  16              		.text
  17              	.Ltext0:
  18              		.cfi_sections	.debug_frame
  19              		.section	.text.InterrupRx,"ax",%progbits
  20              		.align	2
  21              		.global	InterrupRx
  22              		.thumb
  23              		.thumb_func
  24              		.type	InterrupRx, %function
  25              	InterrupRx:
  26              	.LFB68:
  27              		.file 1 "main.c"
   1:main.c        **** /* ========================================
   2:main.c        ****  * 
   3:main.c        ****  *
   4:main.c        ****  * ========================================
   5:main.c        **** */
   6:main.c        **** #include "project.h"
   7:main.c        **** #include <stdio.h>
   8:main.c        **** 
   9:main.c        **** #define DS1307_dir 0x68         
  10:main.c        **** #define ds1307_dir_memory 0x00
  11:main.c        **** #define direccion_de_registro_control 0x07
  12:main.c        **** #define registro_control 0b10010001
  13:main.c        **** 
  14:main.c        **** 
  15:main.c        **** typedef union
  16:main.c        **** {struct{
  17:main.c        ****   uint8_t sec;
  18:main.c        ****   uint8_t min;
  19:main.c        ****   uint8_t hour;
  20:main.c        ****   uint8_t weekDay;
  21:main.c        ****   uint8_t date;
  22:main.c        ****   uint8_t month;
  23:main.c        ****   uint8_t year;  
  24:main.c        **** };
  25:main.c        **** uint8_t datos[8];
  26:main.c        **** }rtc_t;
  27:main.c        **** 
  28:main.c        **** rtc_t ds;
  29:main.c        **** 
  30:main.c        **** 
ARM GAS  C:\Users\nikod\AppData\Local\Temp\ccSDDJek.s 			page 2


  31:main.c        **** void DS_begintx (void){
  32:main.c        ****         do{
  33:main.c        ****                 //Espera mienstras el esclavo le responde
  34:main.c        ****         }while(I2C_MasterSendStart(DS1307_dir, I2C_WRITE_XFER_MODE)!=I2C_MSTR_NO_ERROR);
  35:main.c        **** }
  36:main.c        **** 
  37:main.c        **** void DS_init(void){
  38:main.c        ****     DS_begintx();
  39:main.c        ****     I2C_MasterWriteByte(direccion_de_registro_control);  
  40:main.c        ****     I2C_MasterWriteByte(registro_control);
  41:main.c        ****     I2C_MasterSendStop();
  42:main.c        **** }
  43:main.c        **** 
  44:main.c        **** void DS_set_data(){
  45:main.c        ****     uint8 i; 
  46:main.c        ****     
  47:main.c        ****     for(i=0;i<=7;i++){
  48:main.c        ****         DS_begintx();
  49:main.c        ****         I2C_MasterWriteByte(i);     // Escribe la posicion 
  50:main.c        ****         I2C_MasterWriteByte(ds.datos[i]);            // Escribe el dato correspondiente
  51:main.c        ****         I2C_MasterSendStop();
  52:main.c        ****     }
  53:main.c        **** }
  54:main.c        **** 
  55:main.c        **** void DS_get_data(){        
  56:main.c        ****         uint8 i;
  57:main.c        ****     
  58:main.c        ****     for(i=0;i<=7;i++){
  59:main.c        ****         DS_begintx();
  60:main.c        ****         I2C_MasterWriteByte(i);//Pone direccion de memoria que quiere leer 
  61:main.c        ****         I2C_MasterSendRestart(DS1307_dir, I2C_READ_XFER_MODE); // Re transmite para obtener datos
  62:main.c        ****         ds.datos[i]=I2C_MasterReadByte(I2C_NAK_DATA);
  63:main.c        ****         I2C_MasterSendStop();
  64:main.c        ****     }
  65:main.c        ****     
  66:main.c        **** }
  67:main.c        **** 
  68:main.c        **** CY_ISR(InterrupRx){
  28              		.loc 1 68 0
  29              		.cfi_startproc
  30              		@ args = 0, pretend = 0, frame = 0
  31              		@ frame_needed = 0, uses_anonymous_args = 0
  32 0000 08B5     		push	{r3, lr}
  33              		.cfi_def_cfa_offset 8
  34              		.cfi_offset 3, -8
  35              		.cfi_offset 14, -4
  69:main.c        ****     char dato;
  70:main.c        ****     dato=UART_GetChar();//recibe el dato del bluetooth
  36              		.loc 1 70 0
  37 0002 FFF7FEFF 		bl	UART_GetChar
  38              	.LVL0:
  71:main.c        ****     switch (dato){
  39              		.loc 1 71 0
  40 0006 4138     		subs	r0, r0, #65
  41              	.LVL1:
  42 0008 0328     		cmp	r0, #3
  43 000a 1ED8     		bhi	.L1
ARM GAS  C:\Users\nikod\AppData\Local\Temp\ccSDDJek.s 			page 3


  44 000c DFE800F0 		tbb	[pc, r0]
  45              	.L4:
  46 0010 02       		.byte	(.L3-.L4)/2
  47 0011 09       		.byte	(.L5-.L4)/2
  48 0012 10       		.byte	(.L6-.L4)/2
  49 0013 17       		.byte	(.L7-.L4)/2
  50              		.p2align 1
  51              	.L3:
  72:main.c        ****         case 'A':
  73:main.c        ****         {
  74:main.c        ****             PINA_Write(~PINA_Read());            
  52              		.loc 1 74 0
  53 0014 FFF7FEFF 		bl	PINA_Read
  54              	.LVL2:
  55 0018 C043     		mvns	r0, r0
  56 001a C0B2     		uxtb	r0, r0
  57 001c FFF7FEFF 		bl	PINA_Write
  58              	.LVL3:
  75:main.c        ****             break;
  59              		.loc 1 75 0
  60 0020 08BD     		pop	{r3, pc}
  61              	.L5:
  76:main.c        ****         }
  77:main.c        ****         case 'B':{ 
  78:main.c        ****             PINB_Write(~PINB_Read());
  62              		.loc 1 78 0
  63 0022 FFF7FEFF 		bl	PINB_Read
  64              	.LVL4:
  65 0026 C043     		mvns	r0, r0
  66 0028 C0B2     		uxtb	r0, r0
  67 002a FFF7FEFF 		bl	PINB_Write
  68              	.LVL5:
  79:main.c        ****             break;
  69              		.loc 1 79 0
  70 002e 08BD     		pop	{r3, pc}
  71              	.L6:
  80:main.c        ****         }
  81:main.c        ****         case 'C':{
  82:main.c        ****             PINC_Write(~PINC_Read());            
  72              		.loc 1 82 0
  73 0030 FFF7FEFF 		bl	PINC_Read
  74              	.LVL6:
  75 0034 C043     		mvns	r0, r0
  76 0036 C0B2     		uxtb	r0, r0
  77 0038 FFF7FEFF 		bl	PINC_Write
  78              	.LVL7:
  83:main.c        ****             break;
  79              		.loc 1 83 0
  80 003c 08BD     		pop	{r3, pc}
  81              	.L7:
  84:main.c        ****         }
  85:main.c        ****         case 'D':{
  86:main.c        ****             PIND_Write(~PIND_Read());
  82              		.loc 1 86 0
  83 003e FFF7FEFF 		bl	PIND_Read
  84              	.LVL8:
  85 0042 C043     		mvns	r0, r0
ARM GAS  C:\Users\nikod\AppData\Local\Temp\ccSDDJek.s 			page 4


  86 0044 C0B2     		uxtb	r0, r0
  87 0046 FFF7FEFF 		bl	PIND_Write
  88              	.LVL9:
  89              	.L1:
  90 004a 08BD     		pop	{r3, pc}
  91              		.cfi_endproc
  92              	.LFE68:
  93              		.size	InterrupRx, .-InterrupRx
  94              		.section	.text.DS_begintx,"ax",%progbits
  95              		.align	2
  96              		.global	DS_begintx
  97              		.thumb
  98              		.thumb_func
  99              		.type	DS_begintx, %function
 100              	DS_begintx:
 101              	.LFB64:
  31:main.c        ****         do{
 102              		.loc 1 31 0
 103              		.cfi_startproc
 104              		@ args = 0, pretend = 0, frame = 0
 105              		@ frame_needed = 0, uses_anonymous_args = 0
 106 0000 08B5     		push	{r3, lr}
 107              		.cfi_def_cfa_offset 8
 108              		.cfi_offset 3, -8
 109              		.cfi_offset 14, -4
 110              	.L10:
  34:main.c        **** }
 111              		.loc 1 34 0 discriminator 1
 112 0002 0021     		movs	r1, #0
 113 0004 6820     		movs	r0, #104
 114 0006 FFF7FEFF 		bl	I2C_MasterSendStart
 115              	.LVL10:
 116 000a 0028     		cmp	r0, #0
 117 000c F9D1     		bne	.L10
  35:main.c        **** 
 118              		.loc 1 35 0
 119 000e 08BD     		pop	{r3, pc}
 120              		.cfi_endproc
 121              	.LFE64:
 122              		.size	DS_begintx, .-DS_begintx
 123              		.section	.text.DS_init,"ax",%progbits
 124              		.align	2
 125              		.global	DS_init
 126              		.thumb
 127              		.thumb_func
 128              		.type	DS_init, %function
 129              	DS_init:
 130              	.LFB65:
  37:main.c        ****     DS_begintx();
 131              		.loc 1 37 0
 132              		.cfi_startproc
 133              		@ args = 0, pretend = 0, frame = 0
 134              		@ frame_needed = 0, uses_anonymous_args = 0
 135 0000 08B5     		push	{r3, lr}
 136              		.cfi_def_cfa_offset 8
 137              		.cfi_offset 3, -8
 138              		.cfi_offset 14, -4
ARM GAS  C:\Users\nikod\AppData\Local\Temp\ccSDDJek.s 			page 5


  38:main.c        ****     I2C_MasterWriteByte(direccion_de_registro_control);  
 139              		.loc 1 38 0
 140 0002 FFF7FEFF 		bl	DS_begintx
 141              	.LVL11:
  39:main.c        ****     I2C_MasterWriteByte(registro_control);
 142              		.loc 1 39 0
 143 0006 0720     		movs	r0, #7
 144 0008 FFF7FEFF 		bl	I2C_MasterWriteByte
 145              	.LVL12:
  40:main.c        ****     I2C_MasterSendStop();
 146              		.loc 1 40 0
 147 000c 9120     		movs	r0, #145
 148 000e FFF7FEFF 		bl	I2C_MasterWriteByte
 149              	.LVL13:
  41:main.c        **** }
 150              		.loc 1 41 0
 151 0012 FFF7FEFF 		bl	I2C_MasterSendStop
 152              	.LVL14:
 153 0016 08BD     		pop	{r3, pc}
 154              		.cfi_endproc
 155              	.LFE65:
 156              		.size	DS_init, .-DS_init
 157              		.section	.text.DS_set_data,"ax",%progbits
 158              		.align	2
 159              		.global	DS_set_data
 160              		.thumb
 161              		.thumb_func
 162              		.type	DS_set_data, %function
 163              	DS_set_data:
 164              	.LFB66:
  44:main.c        ****     uint8 i; 
 165              		.loc 1 44 0
 166              		.cfi_startproc
 167              		@ args = 0, pretend = 0, frame = 0
 168              		@ frame_needed = 0, uses_anonymous_args = 0
 169 0000 10B5     		push	{r4, lr}
 170              		.cfi_def_cfa_offset 8
 171              		.cfi_offset 4, -8
 172              		.cfi_offset 14, -4
 173              	.LVL15:
  47:main.c        ****         DS_begintx();
 174              		.loc 1 47 0
 175 0002 0024     		movs	r4, #0
 176 0004 0CE0     		b	.L15
 177              	.LVL16:
 178              	.L16:
  48:main.c        ****         I2C_MasterWriteByte(i);     // Escribe la posicion 
 179              		.loc 1 48 0 discriminator 3
 180 0006 FFF7FEFF 		bl	DS_begintx
 181              	.LVL17:
  49:main.c        ****         I2C_MasterWriteByte(ds.datos[i]);            // Escribe el dato correspondiente
 182              		.loc 1 49 0 discriminator 3
 183 000a 2046     		mov	r0, r4
 184 000c FFF7FEFF 		bl	I2C_MasterWriteByte
 185              	.LVL18:
  50:main.c        ****         I2C_MasterSendStop();
 186              		.loc 1 50 0 discriminator 3
ARM GAS  C:\Users\nikod\AppData\Local\Temp\ccSDDJek.s 			page 6


 187 0010 054B     		ldr	r3, .L18
 188 0012 185D     		ldrb	r0, [r3, r4]	@ zero_extendqisi2
 189 0014 FFF7FEFF 		bl	I2C_MasterWriteByte
 190              	.LVL19:
  51:main.c        ****     }
 191              		.loc 1 51 0 discriminator 3
 192 0018 FFF7FEFF 		bl	I2C_MasterSendStop
 193              	.LVL20:
  47:main.c        ****         DS_begintx();
 194              		.loc 1 47 0 discriminator 3
 195 001c 0134     		adds	r4, r4, #1
 196              	.LVL21:
 197 001e E4B2     		uxtb	r4, r4
 198              	.LVL22:
 199              	.L15:
  47:main.c        ****         DS_begintx();
 200              		.loc 1 47 0 is_stmt 0 discriminator 1
 201 0020 072C     		cmp	r4, #7
 202 0022 F0D9     		bls	.L16
  53:main.c        **** 
 203              		.loc 1 53 0 is_stmt 1
 204 0024 10BD     		pop	{r4, pc}
 205              	.LVL23:
 206              	.L19:
 207 0026 00BF     		.align	2
 208              	.L18:
 209 0028 00000000 		.word	ds
 210              		.cfi_endproc
 211              	.LFE66:
 212              		.size	DS_set_data, .-DS_set_data
 213              		.section	.text.DS_get_data,"ax",%progbits
 214              		.align	2
 215              		.global	DS_get_data
 216              		.thumb
 217              		.thumb_func
 218              		.type	DS_get_data, %function
 219              	DS_get_data:
 220              	.LFB67:
  55:main.c        ****         uint8 i;
 221              		.loc 1 55 0
 222              		.cfi_startproc
 223              		@ args = 0, pretend = 0, frame = 0
 224              		@ frame_needed = 0, uses_anonymous_args = 0
 225 0000 10B5     		push	{r4, lr}
 226              		.cfi_def_cfa_offset 8
 227              		.cfi_offset 4, -8
 228              		.cfi_offset 14, -4
 229              	.LVL24:
  58:main.c        ****         DS_begintx();
 230              		.loc 1 58 0
 231 0002 0024     		movs	r4, #0
 232 0004 11E0     		b	.L21
 233              	.LVL25:
 234              	.L22:
  59:main.c        ****         I2C_MasterWriteByte(i);//Pone direccion de memoria que quiere leer 
 235              		.loc 1 59 0 discriminator 3
 236 0006 FFF7FEFF 		bl	DS_begintx
ARM GAS  C:\Users\nikod\AppData\Local\Temp\ccSDDJek.s 			page 7


 237              	.LVL26:
  60:main.c        ****         I2C_MasterSendRestart(DS1307_dir, I2C_READ_XFER_MODE); // Re transmite para obtener datos
 238              		.loc 1 60 0 discriminator 3
 239 000a 2046     		mov	r0, r4
 240 000c FFF7FEFF 		bl	I2C_MasterWriteByte
 241              	.LVL27:
  61:main.c        ****         ds.datos[i]=I2C_MasterReadByte(I2C_NAK_DATA);
 242              		.loc 1 61 0 discriminator 3
 243 0010 0121     		movs	r1, #1
 244 0012 6820     		movs	r0, #104
 245 0014 FFF7FEFF 		bl	I2C_MasterSendRestart
 246              	.LVL28:
  62:main.c        ****         I2C_MasterSendStop();
 247              		.loc 1 62 0 discriminator 3
 248 0018 0020     		movs	r0, #0
 249 001a FFF7FEFF 		bl	I2C_MasterReadByte
 250              	.LVL29:
 251 001e 044B     		ldr	r3, .L24
 252 0020 1855     		strb	r0, [r3, r4]
  63:main.c        ****     }
 253              		.loc 1 63 0 discriminator 3
 254 0022 FFF7FEFF 		bl	I2C_MasterSendStop
 255              	.LVL30:
  58:main.c        ****         DS_begintx();
 256              		.loc 1 58 0 discriminator 3
 257 0026 0134     		adds	r4, r4, #1
 258              	.LVL31:
 259 0028 E4B2     		uxtb	r4, r4
 260              	.LVL32:
 261              	.L21:
  58:main.c        ****         DS_begintx();
 262              		.loc 1 58 0 is_stmt 0 discriminator 1
 263 002a 072C     		cmp	r4, #7
 264 002c EBD9     		bls	.L22
  66:main.c        **** 
 265              		.loc 1 66 0 is_stmt 1
 266 002e 10BD     		pop	{r4, pc}
 267              	.LVL33:
 268              	.L25:
 269              		.align	2
 270              	.L24:
 271 0030 00000000 		.word	ds
 272              		.cfi_endproc
 273              	.LFE67:
 274              		.size	DS_get_data, .-DS_get_data
 275              		.section	.text.reloj,"ax",%progbits
 276              		.align	2
 277              		.global	reloj
 278              		.thumb
 279              		.thumb_func
 280              		.type	reloj, %function
 281              	reloj:
 282              	.LFB69:
  87:main.c        ****             break;
  88:main.c        ****         }
  89:main.c        ****         case 'S':
  90:main.c        ****         {
ARM GAS  C:\Users\nikod\AppData\Local\Temp\ccSDDJek.s 			page 8


  91:main.c        ****             
  92:main.c        ****             break;
  93:main.c        ****         }
  94:main.c        ****         
  95:main.c        ****         case 'H':
  96:main.c        ****         {
  97:main.c        ****             break;
  98:main.c        ****         }        
  99:main.c        ****         default:
 100:main.c        ****         {
 101:main.c        ****             
 102:main.c        ****             
 103:main.c        ****             
 104:main.c        ****             break;
 105:main.c        ****         }
 106:main.c        ****     }
 107:main.c        **** }
 108:main.c        **** 
 109:main.c        **** 
 110:main.c        **** void reloj(){
 283              		.loc 1 110 0
 284              		.cfi_startproc
 285              		@ args = 0, pretend = 0, frame = 0
 286              		@ frame_needed = 0, uses_anonymous_args = 0
 287 0000 10B5     		push	{r4, lr}
 288              		.cfi_def_cfa_offset 8
 289              		.cfi_offset 4, -8
 290              		.cfi_offset 14, -4
 111:main.c        ****         LCD_PrintNumber(0x01&(ds.hour>>4));
 291              		.loc 1 111 0
 292 0002 124C     		ldr	r4, .L28
 293 0004 A078     		ldrb	r0, [r4, #2]	@ zero_extendqisi2
 294 0006 C0F30010 		ubfx	r0, r0, #4, #1
 295 000a FFF7FEFF 		bl	LCD_PrintU32Number
 296              	.LVL34:
 112:main.c        ****         LCD_PrintNumber((0b00001111)&ds.hour);
 297              		.loc 1 112 0
 298 000e A078     		ldrb	r0, [r4, #2]	@ zero_extendqisi2
 299 0010 00F00F00 		and	r0, r0, #15
 300 0014 FFF7FEFF 		bl	LCD_PrintU32Number
 301              	.LVL35:
 113:main.c        ****         LCD_PutChar(':');
 302              		.loc 1 113 0
 303 0018 3A20     		movs	r0, #58
 304 001a FFF7FEFF 		bl	LCD_PutChar
 305              	.LVL36:
 114:main.c        ****         LCD_PrintNumber(ds.min>>4);
 306              		.loc 1 114 0
 307 001e 6078     		ldrb	r0, [r4, #1]	@ zero_extendqisi2
 308 0020 0009     		lsrs	r0, r0, #4
 309 0022 FFF7FEFF 		bl	LCD_PrintU32Number
 310              	.LVL37:
 115:main.c        ****         LCD_PrintNumber((0b00001111)&ds.min);
 311              		.loc 1 115 0
 312 0026 6078     		ldrb	r0, [r4, #1]	@ zero_extendqisi2
 313 0028 00F00F00 		and	r0, r0, #15
 314 002c FFF7FEFF 		bl	LCD_PrintU32Number
ARM GAS  C:\Users\nikod\AppData\Local\Temp\ccSDDJek.s 			page 9


 315              	.LVL38:
 116:main.c        ****         LCD_PutChar(':');       
 316              		.loc 1 116 0
 317 0030 3A20     		movs	r0, #58
 318 0032 FFF7FEFF 		bl	LCD_PutChar
 319              	.LVL39:
 117:main.c        ****         LCD_PrintNumber(ds.sec>>4);
 320              		.loc 1 117 0
 321 0036 2078     		ldrb	r0, [r4]	@ zero_extendqisi2
 322 0038 0009     		lsrs	r0, r0, #4
 323 003a FFF7FEFF 		bl	LCD_PrintU32Number
 324              	.LVL40:
 118:main.c        ****         LCD_PrintNumber((0b00001111)&ds.sec);
 325              		.loc 1 118 0
 326 003e 2078     		ldrb	r0, [r4]	@ zero_extendqisi2
 327 0040 00F00F00 		and	r0, r0, #15
 328 0044 FFF7FEFF 		bl	LCD_PrintU32Number
 329              	.LVL41:
 330 0048 10BD     		pop	{r4, pc}
 331              	.L29:
 332 004a 00BF     		.align	2
 333              	.L28:
 334 004c 00000000 		.word	ds
 335              		.cfi_endproc
 336              	.LFE69:
 337              		.size	reloj, .-reloj
 338              		.section	.text.main,"ax",%progbits
 339              		.align	2
 340              		.global	main
 341              		.thumb
 342              		.thumb_func
 343              		.type	main, %function
 344              	main:
 345              	.LFB70:
 119:main.c        **** }
 120:main.c        **** 
 121:main.c        **** int main(void)
 122:main.c        **** {
 346              		.loc 1 122 0
 347              		.cfi_startproc
 348              		@ Volatile: function does not return.
 349              		@ args = 0, pretend = 0, frame = 0
 350              		@ frame_needed = 0, uses_anonymous_args = 0
 351 0000 08B5     		push	{r3, lr}
 352              		.cfi_def_cfa_offset 8
 353              		.cfi_offset 3, -8
 354              		.cfi_offset 14, -4
 123:main.c        ****     
 124:main.c        ****     CyGlobalIntEnable; /* Enable global interrupts. */
 355              		.loc 1 124 0
 356              		.syntax unified
 357              	@ 124 "main.c" 1
 358 0002 62B6     		CPSIE   i
 359              	@ 0 "" 2
 125:main.c        ****     IRQRX_StartEx(InterrupRx);
 360              		.loc 1 125 0
 361              		.thumb
ARM GAS  C:\Users\nikod\AppData\Local\Temp\ccSDDJek.s 			page 10


 362              		.syntax unified
 363 0004 1948     		ldr	r0, .L33
 364 0006 FFF7FEFF 		bl	IRQRX_StartEx
 365              	.LVL42:
 126:main.c        ****     UART_Start();
 366              		.loc 1 126 0
 367 000a FFF7FEFF 		bl	UART_Start
 368              	.LVL43:
 127:main.c        ****     LCD_Start();
 369              		.loc 1 127 0
 370 000e FFF7FEFF 		bl	LCD_Start
 371              	.LVL44:
 128:main.c        ****     I2C_Start();
 372              		.loc 1 128 0
 373 0012 FFF7FEFF 		bl	I2C_Start
 374              	.LVL45:
 129:main.c        ****     PWM_Start();
 375              		.loc 1 129 0
 376 0016 FFF7FEFF 		bl	PWM_Start
 377              	.LVL46:
 130:main.c        ****     ds.hour = 0b00010001;
 378              		.loc 1 130 0
 379 001a 154B     		ldr	r3, .L33+4
 380 001c 1122     		movs	r2, #17
 381 001e 9A70     		strb	r2, [r3, #2]
 131:main.c        ****     ds.min =  0x51;
 382              		.loc 1 131 0
 383 0020 5122     		movs	r2, #81
 384 0022 5A70     		strb	r2, [r3, #1]
 132:main.c        ****     ds.sec =  0x00; //  11:05:30 am
 385              		.loc 1 132 0
 386 0024 0024     		movs	r4, #0
 387 0026 1C70     		strb	r4, [r3]
 133:main.c        ****     ds.date = 0x12; 
 388              		.loc 1 133 0
 389 0028 1222     		movs	r2, #18
 390 002a 1A71     		strb	r2, [r3, #4]
 134:main.c        ****     ds.month = 0x10;
 391              		.loc 1 134 0
 392 002c 1022     		movs	r2, #16
 393 002e 5A71     		strb	r2, [r3, #5]
 135:main.c        ****     ds.year = 0x18; //12 octubre 2018
 394              		.loc 1 135 0
 395 0030 1822     		movs	r2, #24
 396 0032 9A71     		strb	r2, [r3, #6]
 136:main.c        ****     ds.weekDay = 5; // Friday: 5th day of week considering monday as first day.;
 397              		.loc 1 136 0
 398 0034 0522     		movs	r2, #5
 399 0036 DA70     		strb	r2, [r3, #3]
 137:main.c        ****     //DS_init();//Configura 
 138:main.c        ****     //DS_set_data();  
 139:main.c        ****     PINA_Write(0);
 400              		.loc 1 139 0
 401 0038 2046     		mov	r0, r4
 402 003a FFF7FEFF 		bl	PINA_Write
 403              	.LVL47:
 140:main.c        ****     PINB_Write(0);
ARM GAS  C:\Users\nikod\AppData\Local\Temp\ccSDDJek.s 			page 11


 404              		.loc 1 140 0
 405 003e 2046     		mov	r0, r4
 406 0040 FFF7FEFF 		bl	PINB_Write
 407              	.LVL48:
 141:main.c        ****     PINC_Write(0);
 408              		.loc 1 141 0
 409 0044 2046     		mov	r0, r4
 410 0046 FFF7FEFF 		bl	PINC_Write
 411              	.LVL49:
 142:main.c        ****     PIND_Write(0);
 412              		.loc 1 142 0
 413 004a 2046     		mov	r0, r4
 414 004c FFF7FEFF 		bl	PIND_Write
 415              	.LVL50:
 416              	.L31:
 143:main.c        ****         
 144:main.c        ****     for(;;)
 145:main.c        ****     {       
 146:main.c        ****         DS_get_data();     
 417              		.loc 1 146 0 discriminator 1
 418 0050 FFF7FEFF 		bl	DS_get_data
 419              	.LVL51:
 147:main.c        ****         LCD_Position(1,4);
 420              		.loc 1 147 0 discriminator 1
 421 0054 0421     		movs	r1, #4
 422 0056 0120     		movs	r0, #1
 423 0058 FFF7FEFF 		bl	LCD_Position
 424              	.LVL52:
 148:main.c        ****         reloj();
 425              		.loc 1 148 0 discriminator 1
 426 005c FFF7FEFF 		bl	reloj
 427              	.LVL53:
 149:main.c        ****         CyDelay(500);
 428              		.loc 1 149 0 discriminator 1
 429 0060 4FF4FA70 		mov	r0, #500
 430 0064 FFF7FEFF 		bl	CyDelay
 431              	.LVL54:
 432 0068 F2E7     		b	.L31
 433              	.L34:
 434 006a 00BF     		.align	2
 435              	.L33:
 436 006c 00000000 		.word	InterrupRx
 437 0070 00000000 		.word	ds
 438              		.cfi_endproc
 439              	.LFE70:
 440              		.size	main, .-main
 441              		.comm	ds,8,4
 442              		.text
 443              	.Letext0:
 444              		.file 2 "c:\\program files (x86)\\cypress\\psoc creator\\4.2\\psoc creator\\import\\gnu\\arm\\5.4.
 445              		.file 3 "c:\\program files (x86)\\cypress\\psoc creator\\4.2\\psoc creator\\import\\gnu\\arm\\5.4.
 446              		.file 4 "Generated_Source\\PSoC5/cytypes.h"
 447              		.file 5 "Generated_Source\\PSoC5/UART.h"
 448              		.file 6 "Generated_Source\\PSoC5/PINA.h"
 449              		.file 7 "Generated_Source\\PSoC5/PINB.h"
 450              		.file 8 "Generated_Source\\PSoC5/PINC.h"
 451              		.file 9 "Generated_Source\\PSoC5/PIND.h"
ARM GAS  C:\Users\nikod\AppData\Local\Temp\ccSDDJek.s 			page 12


 452              		.file 10 "Generated_Source\\PSoC5/I2C.h"
 453              		.file 11 "Generated_Source\\PSoC5/LCD.h"
 454              		.file 12 "Generated_Source\\PSoC5/IRQRX.h"
 455              		.file 13 "Generated_Source\\PSoC5/PWM.h"
 456              		.file 14 "Generated_Source\\PSoC5/CyLib.h"
 457              		.file 15 "Generated_Source\\PSoC5/core_cm3.h"